Certificate:
    Data:
        Version: 3 (0x2)
        Serial Number:
            90:ae:77:76:00:00:00:00:57:1d:d0:6f
        Signature Algorithm: sha256WithRSAEncryption
        Issuer: C = SI, O = Republika Slovenija, organizationIdentifier = VATSI-17659957, CN = SI-TRUST Root
        Validity
            Not Before: Apr 25 07:38:17 2016 GMT
            Not After : Dec 25 08:08:17 2037 GMT
        Subject: C = SI, O = Republika Slovenija, organizationIdentifier = VATSI-17659957, CN = SI-TRUST Root
        Subject Public Key Info:
            Public Key Algorithm: rsaEncryption
                Public-Key: (3072 bit)
                Modulus:
                    00:d3:cb:9c:2d:c2:e0:30:43:65:31:24:ff:4b:b0:
                    38:d9:a9:53:d7:35:d1:db:b7:4b:93:b4:72:8d:f1:
                    cb:95:d2:53:2b:74:9b:32:9a:a4:2f:3e:02:06:dd:
                    af:70:15:a1:aa:cf:11:87:8a:66:7b:cb:cc:1d:70:
                    44:5c:8f:ac:ca:e6:c3:5b:27:b4:8d:a3:8e:10:bf:
                    6e:54:74:08:70:8a:23:e8:ca:c7:74:c4:66:91:20:
                    dd:4b:e8:a5:84:75:a5:98:95:82:8b:1b:e1:20:24:
                    07:46:ab:0c:65:36:40:67:8b:75:ee:a9:d9:91:29:
                    1b:ed:6f:2d:45:c2:d6:e2:60:01:b1:f3:4e:39:2b:
                    3b:6f:3f:85:be:08:f6:53:2b:7b:a2:c9:45:a1:44:
                    81:80:66:9a:60:3a:1b:c4:be:0c:cc:30:10:7f:11:
                    36:38:4a:e6:9b:a1:96:53:9c:94:cc:11:c6:04:4c:
                    a2:55:4b:ff:80:e1:af:8c:1c:35:fc:b9:93:37:df:
                    f9:5d:3d:dc:eb:0d:27:6c:44:c9:59:66:2b:56:6f:
                    ff:04:1b:f7:f5:69:c3:5d:c3:18:fe:bd:a7:d9:64:
                    2f:a2:9f:60:d9:72:6c:3d:3c:75:f2:25:27:98:2e:
                    3a:b8:c9:dd:4d:75:bd:ab:b0:22:61:58:01:37:28:
                    a6:20:9d:2e:60:5c:fb:90:bc:46:43:b8:fe:6d:d8:
                    c0:66:22:24:6b:34:78:22:e5:b9:e2:58:e9:48:38:
                    ee:4c:bd:01:7b:6e:3e:40:ea:d1:c2:0a:42:93:67:
                    c3:26:2f:3f:07:5b:cf:af:e3:1d:e8:3a:e2:65:e1:
                    84:91:3f:f5:66:00:fd:aa:33:46:42:ec:16:3e:d2:
                    13:65:2f:0e:09:53:f6:e4:2a:75:14:9c:19:33:16:
                    9a:45:e1:db:57:cf:cf:38:d4:a7:f7:ed:58:43:e4:
                    0e:98:5c:c4:e0:31:3f:94:a4:6f:4b:4a:a2:d5:4a:
                    8d:26:a9:1d:64:25:08:35:0d:e7
                Exponent: 65537 (0x10001)
        X509v3 extensions:
            X509v3 Basic Constraints: critical
                CA:TRUE
            X509v3 Key Usage: critical
                Certificate Sign, CRL Sign
            X509v3 Authority Key Identifier: 
                4C:A3:C3:68:5E:08:02:63
            X509v3 Subject Key Identifier: 
                4C:A3:C3:68:5E:08:02:63
    Signature Algorithm: sha256WithRSAEncryption
    Signature Value:
        26:23:85:bb:5d:41:19:6e:92:83:8a:ee:01:8b:04:35:19:7f:
        ab:8f:dc:d6:33:c1:f9:79:96:5e:23:f5:f0:ce:dd:ea:db:61:
        3b:5a:af:dd:58:e9:42:89:40:ef:f9:d9:67:11:7f:4d:f1:ed:
        e9:11:7b:b1:41:0f:ed:a4:d2:16:b6:ef:c1:fd:8b:f6:11:2b:
        2c:ef:fc:07:06:46:0c:cf:02:0b:ed:3b:de:8f:09:b9:33:ab:
        26:80:54:44:42:65:d7:e7:af:cd:50:0e:ca:c8:88:a1:12:9c:
        2a:95:3b:3e:54:3c:48:73:f6:7c:78:d4:9b:ff:93:f7:45:e4:
        29:84:63:fc:fa:7e:1a:e7:5c:e0:72:57:b0:2f:78:1d:30:c6:
        13:fd:88:5f:b1:65:88:da:5e:97:13:81:7b:fe:1e:cf:7b:bf:
        57:30:c1:70:92:43:a6:99:f0:55:9f:98:c5:23:42:bd:74:1c:
        31:8e:12:a5:d9:45:6a:2a:5a:c8:58:cd:bd:d6:dd:3e:35:0b:
        19:7f:03:1c:ce:07:0f:87:45:93:15:a1:6b:bd:34:1c:e0:de:
        f5:d4:b8:e5:91:1c:4b:05:b5:27:26:bc:cf:d1:09:98:16:c6:
        e1:f1:55:4b:3a:7b:6d:de:c6:67:b6:c1:37:2d:9f:a8:8e:59:
        c7:b7:a6:c5:ef:df:16:e2:ed:de:b2:b7:f3:a2:36:a4:28:32:
        3a:0a:94:cb:3f:5e:fe:6e:59:ed:ba:36:b2:93:d6:c6:c3:19:
        fe:f5:99:78:eb:47:47:e5:ad:42:7a:ec:bc:7b:c9:2e:41:4e:
        4d:0f:04:0e:8a:4b:33:87:dc:f1:76:7c:5a:18:8c:9c:0a:12:
        d7:a2:b3:c2:85:87:ae:6d:31:50:62:32:21:a0:68:16:5f:94:
        35:74:55:29:d2:71:81:08:4a:e1:d7:5d:aa:54:01:b3:1b:7c:
        59:ae:be:ac:0c:ca:b8:40:64:67:5b:9d:ea:06:06:11:d6:d0:
        30:73:1e:e3:bc:2b
-----BEGIN CERTIFICATE-----
MIIEijCCAvKgAwIBAgINAJCud3YAAAAAVx3QbzANBgkqhkiG9w0BAQsFADBcMQsw
CQYDVQQGEwJTSTEcMBoGA1UEChMTUmVwdWJsaWthIFNsb3ZlbmlqYTEXMBUGA1UE
YRMOVkFUU0ktMTc2NTk5NTcxFjAUBgNVBAMTDVNJLVRSVVNUIFJvb3QwHhcNMTYw
NDI1MDczODE3WhcNMzcxMjI1MDgwODE3WjBcMQswCQYDVQQGEwJTSTEcMBoGA1UE
ChMTUmVwdWJsaWthIFNsb3ZlbmlqYTEXMBUGA1UEYRMOVkFUU0ktMTc2NTk5NTcx
FjAUBgNVBAMTDVNJLVRSVVNUIFJvb3QwggGiMA0GCSqGSIb3DQEBAQUAA4IBjwAw
ggGKAoIBgQDTy5wtwuAwQ2UxJP9LsDjZqVPXNdHbt0uTtHKN8cuV0lMrdJsymqQv
PgIG3a9wFaGqzxGHimZ7y8wdcERcj6zK5sNbJ7SNo44Qv25UdAhwiiPoysd0xGaR
IN1L6KWEdaWYlYKLG+EgJAdGqwxlNkBni3XuqdmRKRvtby1FwtbiYAGx8045Kztv
P4W+CPZTK3uiyUWhRIGAZppgOhvEvgzMMBB/ETY4SuaboZZTnJTMEcYETKJVS/+A
4a+MHDX8uZM33/ldPdzrDSdsRMlZZitWb/8EG/f1acNdwxj+vafZZC+in2DZcmw9
PHXyJSeYLjq4yd1Ndb2rsCJhWAE3KKYgnS5gXPuQvEZDuP5t2MBmIiRrNHgi5bni
WOlIOO5MvQF7bj5A6tHCCkKTZ8MmLz8HW8+v4x3oOuJl4YSRP/VmAP2qM0ZC7BY+
0hNlLw4JU/bkKnUUnBkzFppF4dtXz8841Kf37VhD5A6YXMTgMT+UpG9LSqLVSo0m
qR1kJQg1DecCAwEAAaNLMEkwDwYDVR0TAQH/BAUwAwEB/zAOBgNVHQ8BAf8EBAMC
AQYwEwYDVR0jBAwwCoAITKPDaF4IAmMwEQYDVR0OBAoECEyjw2heCAJjMA0GCSqG
SIb3DQEBCwUAA4IBgQAmI4W7XUEZbpKDiu4BiwQ1GX+rj9zWM8H5eZZeI/Xwzt3q
22E7Wq/dWOlCiUDv+dlnEX9N8e3pEXuxQQ/tpNIWtu/B/Yv2ESss7/wHBkYMzwIL
7Tvejwm5M6smgFREQmXX56/NUA7KyIihEpwqlTs+VDxIc/Z8eNSb/5P3ReQphGP8
+n4a51zgclewL3gdMMYT/YhfsWWI2l6XE4F7/h7Pe79XMMFwkkOmmfBVn5jFI0K9
dBwxjhKl2UVqKlrIWM291t0+NQsZfwMczgcPh0WTFaFrvTQc4N711LjlkRxLBbUn
JrzP0QmYFsbh8VVLOntt3sZntsE3LZ+ojlnHt6bF798W4u3esrfzojakKDI6CpTL
P17+blntujayk9bGwxn+9Zl460dH5a1Ceuy8e8kuQU5NDwQOikszh9zxdnxaGIyc
ChLXorPChYeubTFQYjIhoGgWX5Q1dFUp0nGBCErh112qVAGzG3xZrr6sDMq4QGRn
W53qBgYR1tAwcx7jvCs=
-----END CERTIFICATE-----
