Certificate:
    Data:
        Version: 3 (0x2)
        Serial Number:
            a0:e3:6b:67:00:00:00:00:57:1d:d0:e9
        Signature Algorithm: sha256WithRSAEncryption
        Issuer: C = SI, O = Republika Slovenija, organizationIdentifier = VATSI-17659957, CN = SI-TRUST Root
        Validity
            Not Before: May 24 12:03:18 2016 GMT
            Not After : Dec 22 23:00:00 2035 GMT
        Subject: C = SI, O = Republika Slovenija, organizationIdentifier = VATSI-17659957, CN = SIGOV-CA
        Subject Public Key Info:
            Public Key Algorithm: rsaEncryption
                Public-Key: (3072 bit)
                Modulus:
                    00:cc:0b:d6:af:16:91:84:fc:6e:04:e0:74:71:ef:
                    74:c4:be:03:41:62:7a:9f:5e:40:0e:18:d9:b3:62:
                    2c:56:05:d8:6c:e3:db:29:0f:d4:b9:60:d9:23:d0:
                    24:12:09:90:1e:11:c7:8f:5c:7a:53:62:90:cf:d7:
                    3b:3b:31:b6:8b:f8:aa:73:fc:78:ef:4d:e8:4c:f8:
                    a6:ee:bc:32:57:73:1d:d5:82:d9:4a:60:95:1f:2f:
                    13:d4:0c:8e:7d:f3:15:d1:8c:f3:cc:7c:e3:1e:40:
                    ef:0c:43:af:4e:64:81:e8:8f:2f:2f:4a:0f:6b:d2:
                    56:c5:fb:08:d2:00:59:71:af:f4:50:04:d1:ac:82:
                    b6:c5:0d:59:00:47:fa:79:67:fd:e4:7d:c4:91:92:
                    c1:81:f2:4a:7b:d8:9e:25:30:8a:10:15:b1:93:18:
                    46:2a:41:72:37:3c:12:92:d6:ae:26:9a:42:fc:4e:
                    86:a9:a4:f2:ac:2f:4e:66:e6:f5:20:a8:e2:e4:ca:
                    23:d1:c6:84:86:e1:31:06:7e:e8:1f:d0:d1:c1:cd:
                    29:ae:61:3c:9c:90:a4:9f:62:5b:36:bb:80:17:d4:
                    7b:bb:94:fc:47:b9:5e:3e:16:8c:d2:65:b2:14:bc:
                    d3:03:6e:4b:cc:bc:81:b9:14:bc:f3:e1:00:6b:96:
                    11:7d:07:83:9f:ef:e7:23:a9:ab:a8:8c:6e:41:4b:
                    e6:f7:4b:89:fe:2a:75:5d:3a:23:ff:a3:e2:87:28:
                    f0:5e:fa:d4:e6:ec:e5:53:f7:f7:ef:90:1d:40:45:
                    f7:72:de:e9:96:41:c1:e7:ed:cc:26:1e:80:85:17:
                    fe:44:4f:c8:4a:31:9a:45:03:0a:49:9e:f0:71:74:
                    9b:a8:09:04:5d:29:ae:1e:c2:a3:88:1e:05:e1:33:
                    48:2a:b9:0f:0c:6b:29:b6:f4:66:14:b7:d2:ec:63:
                    11:0a:f7:76:05:df:c4:7a:89:41:c7:ee:c8:a7:72:
                    9a:56:04:b8:62:7b:4e:69:ae:55
                Exponent: 65537 (0x10001)
        X509v3 extensions:
            X509v3 Basic Constraints: critical
                CA:TRUE, pathlen:0
            X509v3 Key Usage: critical
                Certificate Sign, CRL Sign
            X509v3 Certificate Policies: 
                Policy: X509v3 Any Policy
                  CPS: http://www.ca.gov.si/cps/
            Authority Information Access: 
                CA Issuers - URI:http://www.ca.gov.si/crt/si-trust-root.crt
                OCSP - URI:http://ocsp.ca.gov.si
            X509v3 Subject Key Identifier: 
                46:5E:40:E5:53:ED:FE:FE
            X509v3 CRL Distribution Points: 
                Full Name:
                  URI:http://www.ca.gov.si/crl/si-trust-root.crl
                  URI:ldap://x500.gov.si/cn=SI-TRUST%20Root,organizationIdentifier=VATSI-17659957,o=Republika%20Slovenija,c=SI?certificateRevocationList
                Full Name:
                  DirName:C = SI, O = Republika Slovenija, organizationIdentifier = VATSI-17659957, CN = SI-TRUST Root, CN = CRL1
            X509v3 Authority Key Identifier: 
                4C:A3:C3:68:5E:08:02:63
    Signature Algorithm: sha256WithRSAEncryption
    Signature Value:
        94:df:83:d5:a6:06:82:19:28:03:b2:2a:d2:1e:5c:e4:69:6e:
        4b:8f:ac:0e:e4:4e:82:fc:f2:7e:ac:c0:a5:91:3a:a5:6b:9a:
        03:bd:12:b6:04:6a:36:14:d6:77:f4:b8:ad:f0:3f:0e:85:bd:
        a8:4b:b2:31:a5:88:73:27:fa:e1:06:76:0b:39:15:cb:d4:2e:
        64:28:d7:09:b5:01:9f:8d:2f:4b:71:30:75:2b:8d:bf:20:ce:
        9b:5e:eb:2b:0d:84:d9:af:1a:53:dd:51:58:95:95:90:b4:9a:
        11:07:e2:ff:99:1e:11:76:2a:9d:d1:b8:48:cb:66:a0:25:70:
        4b:11:a8:10:21:b8:e7:3d:d6:a7:49:49:93:a3:90:74:14:71:
        29:5a:dd:04:32:20:94:63:28:82:6a:39:42:5d:68:21:53:e6:
        a0:4f:c6:8d:b0:af:55:49:e8:9a:e5:ca:a9:3b:de:2d:b1:8b:
        b0:38:7c:1f:23:6f:fc:45:6c:dd:54:57:71:6a:0a:da:f7:34:
        0b:8d:ef:2f:85:44:a9:06:52:fb:a4:3f:a4:1e:63:8f:49:4c:
        26:11:f5:9d:10:3e:b6:00:a4:61:02:b1:ee:d1:fb:54:d6:35:
        ab:26:8c:6b:a0:d7:fa:aa:1a:d3:20:d8:fd:e2:41:6c:52:f7:
        58:50:68:6b:4c:8c:88:29:52:cd:12:36:da:8b:e7:4f:a4:1f:
        d7:99:4e:0e:5a:6d:7a:38:4d:7a:46:11:78:56:9f:26:7b:b7:
        ee:6a:da:48:b6:15:fa:11:28:94:9b:21:c3:57:83:9b:0c:89:
        0c:7f:3b:c7:ea:ee:88:e6:c7:db:81:dc:7b:b4:c3:ef:b4:f3:
        1c:4e:4a:db:6a:41:12:50:18:11:df:a6:ac:94:ee:a5:93:76:
        4c:95:dc:1f:04:67:b1:f9:30:97:d8:b4:2c:d0:ef:07:c7:44:
        f6:87:c8:b0:b9:af:40:f9:66:b0:01:80:df:dd:58:67:9a:53:
        44:c2:53:5d:a9:30
-----BEGIN CERTIFICATE-----
MIIGczCCBNugAwIBAgINAKDja2cAAAAAVx3Q6TANBgkqhkiG9w0BAQsFADBcMQsw
CQYDVQQGEwJTSTEcMBoGA1UEChMTUmVwdWJsaWthIFNsb3ZlbmlqYTEXMBUGA1UE
YRMOVkFUU0ktMTc2NTk5NTcxFjAUBgNVBAMTDVNJLVRSVVNUIFJvb3QwHhcNMTYw
NTI0MTIwMzE4WhcNMzUxMjIyMjMwMDAwWjBXMQswCQYDVQQGEwJTSTEcMBoGA1UE
ChMTUmVwdWJsaWthIFNsb3ZlbmlqYTEXMBUGA1UEYRMOVkFUU0ktMTc2NTk5NTcx
ETAPBgNVBAMTCFNJR09WLUNBMIIBojANBgkqhkiG9w0BAQEFAAOCAY8AMIIBigKC
AYEAzAvWrxaRhPxuBOB0ce90xL4DQWJ6n15ADhjZs2IsVgXYbOPbKQ/UuWDZI9Ak
EgmQHhHHj1x6U2KQz9c7OzG2i/iqc/x4703oTPim7rwyV3Md1YLZSmCVHy8T1AyO
ffMV0YzzzHzjHkDvDEOvTmSB6I8vL0oPa9JWxfsI0gBZca/0UATRrIK2xQ1ZAEf6
eWf95H3EkZLBgfJKe9ieJTCKEBWxkxhGKkFyNzwSktauJppC/E6GqaTyrC9OZub1
IKji5Moj0caEhuExBn7oH9DRwc0prmE8nJCkn2JbNruAF9R7u5T8R7lePhaM0mWy
FLzTA25LzLyBuRS88+EAa5YRfQeDn+/nI6mrqIxuQUvm90uJ/ip1XToj/6Pihyjw
XvrU5uzlU/f375AdQEX3ct7plkHB5+3MJh6AhRf+RE/ISjGaRQMKSZ7wcXSbqAkE
XSmuHsKjiB4F4TNIKrkPDGsptvRmFLfS7GMRCvd2Bd/EeolBx+7Ip3KaVgS4YntO
aa5VAgMBAAGjggI3MIICMzASBgNVHRMBAf8ECDAGAQH/AgEAMA4GA1UdDwEB/wQE
AwIBBjA6BgNVHSAEMzAxMC8GBFUdIAAwJzAlBggrBgEFBQcCARYZaHR0cDovL3d3
dy5jYS5nb3Yuc2kvY3BzLzBpBggrBgEFBQcBAQRdMFswNgYIKwYBBQUHMAKGKmh0
dHA6Ly93d3cuY2EuZ292LnNpL2NydC9zaS10cnVzdC1yb290LmNydDAhBggrBgEF
BQcwAYYVaHR0cDovL29jc3AuY2EuZ292LnNpMBEGA1UdDgQKBAhGXkDlU+3+/jCC
ATwGA1UdHwSCATMwggEvMIG3oIG0oIGxhipodHRwOi8vd3d3LmNhLmdvdi5zaS9j
cmwvc2ktdHJ1c3Qtcm9vdC5jcmyGgYJsZGFwOi8veDUwMC5nb3Yuc2kvY249U0kt
VFJVU1QlMjBSb290LG9yZ2FuaXphdGlvbklkZW50aWZpZXI9VkFUU0ktMTc2NTk5
NTcsbz1SZXB1Ymxpa2ElMjBTbG92ZW5pamEsYz1TST9jZXJ0aWZpY2F0ZVJldm9j
YXRpb25MaXN0MHOgcaBvpG0wazELMAkGA1UEBhMCU0kxHDAaBgNVBAoTE1JlcHVi
bGlrYSBTbG92ZW5pamExFzAVBgNVBGETDlZBVFNJLTE3NjU5OTU3MRYwFAYDVQQD
Ew1TSS1UUlVTVCBSb290MQ0wCwYDVQQDEwRDUkwxMBMGA1UdIwQMMAqACEyjw2he
CAJjMA0GCSqGSIb3DQEBCwUAA4IBgQCU34PVpgaCGSgDsirSHlzkaW5Lj6wO5E6C
/PJ+rMClkTqla5oDvRK2BGo2FNZ39Lit8D8Ohb2oS7IxpYhzJ/rhBnYLORXL1C5k
KNcJtQGfjS9LcTB1K42/IM6bXusrDYTZrxpT3VFYlZWQtJoRB+L/mR4Rdiqd0bhI
y2agJXBLEagQIbjnPdanSUmTo5B0FHEpWt0EMiCUYyiCajlCXWghU+agT8aNsK9V
Seia5cqpO94tsYuwOHwfI2/8RWzdVFdxagra9zQLje8vhUSpBlL7pD+kHmOPSUwm
EfWdED62AKRhArHu0ftU1jWrJoxroNf6qhrTINj94kFsUvdYUGhrTIyIKVLNEjba
i+dPpB/XmU4OWm16OE16RhF4Vp8me7fuatpIthX6ESiUmyHDV4ObDIkMfzvH6u6I
5sfbgdx7tMPvtPMcTkrbakESUBgR36aslO6lk3ZMldwfBGex+TCX2LQs0O8Hx0T2
h8iwua9A+WawAYDf3VhnmlNEwlNdqTA=
-----END CERTIFICATE-----
